target datalayout = "e-m:e-p270:32:32-p271:32:32-p272:64:64-i64:64-i128:128-f80:128-n8:16:32:64-S128"
target triple = "x86_64-pc-linux-gnu"

%struct.fpa2bv_rewriter_cfg = type <{ ptr, %class.ref_vector, ptr, %class.ref_vector.0, i64, i32, [4 x i8] }>
%class.ref_vector = type { %class.ref_vector_core }
%class.ref_vector_core = type { %class.ref_manager_wrapper, %class.ptr_vector }
%class.ref_manager_wrapper = type { ptr }
%class.ptr_vector = type { %class.vector }
%class.vector = type { ptr }
%class.ref_vector.0 = type { %class.ref_vector_core.1 }
%class.ref_vector_core.1 = type { %class.ref_manager_wrapper.2, %class.ptr_vector.3 }
%class.ref_manager_wrapper.2 = type { ptr }
%class.ptr_vector.3 = type { %class.vector.4 }
%class.vector.4 = type { ptr }
%class.svector.24 = type { %class.vector.25 }
%class.vector.25 = type { ptr }
%class.obj_ref = type { ptr, ptr }
%class.obj_ref.48 = type { ptr, ptr }
%class.rewriter_core = type { ptr, ptr, i8, i8, %class.ptr_vector.49, ptr, %class.svector.51, %class.ref_vector, %class.ptr_vector.49, ptr, %class.ref_vector.53, %class.obj_hashtable, ptr, i32, %class.svector.61 }
%class.svector.51 = type { %class.vector.52 }
%class.vector.52 = type { ptr }
%class.ptr_vector.49 = type { %class.vector.50 }
%class.vector.50 = type { ptr }
%class.ref_vector.53 = type { %class.ref_vector_core.54 }
%class.ref_vector_core.54 = type { %class.ref_manager_wrapper.55, %class.ptr_vector.56 }
%class.ref_manager_wrapper.55 = type { ptr }
%class.ptr_vector.56 = type { %class.vector.57 }
%class.vector.57 = type { ptr }
%class.obj_hashtable = type { %class.core_hashtable.base.60, [4 x i8] }
%class.core_hashtable.base.60 = type <{ ptr, i32, i32, i32 }>
%class.svector.61 = type { %class.vector.62 }
%class.vector.62 = type { ptr }
%class.rewriter_tpl = type { %class.rewriter_core, ptr, i32, %class.ptr_vector, %class.var_shifter, %class.inv_var_shifter, %class.obj_ref, %class.obj_ref.48, %class.obj_ref.48, %class.svector.24 }
%class.var_shifter = type <{ %class.var_shifter_core, i32, i32, i32, [4 x i8] }>
%class.var_shifter_core = type { %class.rewriter_core }
%class.inv_var_shifter = type <{ %class.var_shifter_core, i32, [4 x i8] }>
%struct.fpa2bv_rewriter = type { %class.rewriter_tpl, %struct.fpa2bv_rewriter_cfg }

; Function Attrs: mustprogress nounwind uwtable
define linkonce_odr hidden noundef ptr @_ZNK7obj_refI4expr11ast_managerEcvPS0_Ev(ptr noundef nonnull align 8 dereferenceable(16) %0) #6 comdat align 2 {
  %2 = alloca ptr, align 8
  store ptr %0, ptr %2, align 8, !tbaa !97
  %3 = load ptr, ptr %2, align 8
  %4 = getelementptr inbounds nuw %class.obj_ref, ptr %3, i32 0, i32 0
  %5 = load ptr, ptr %4, align 8, !tbaa !119
  ret ptr %5
}

; Function Attrs: mustprogress uwtable
define weak_odr hidden void @_ZN12rewriter_tplI19fpa2bv_rewriter_cfgEclEP4exprR7obj_refIS2_11ast_managerE(ptr noundef nonnull align 8 dereferenceable(536) %0, ptr noundef %1, ptr noundef nonnull align 8 dereferenceable(16) %2) #4 comdat align 2 {
  %4 = alloca ptr, align 8
  %5 = alloca ptr, align 8
  %6 = alloca ptr, align 8
  store ptr %0, ptr %4, align 8, !tbaa !231
  store ptr %1, ptr %5, align 8, !tbaa !105
  store ptr %2, ptr %6, align 8, !tbaa !97
  %7 = load ptr, ptr %4, align 8
  %8 = load ptr, ptr %5, align 8, !tbaa !105
  %9 = load ptr, ptr %6, align 8, !tbaa !97
  %10 = getelementptr inbounds nuw %class.rewriter_tpl, ptr %7, i32 0, i32 7
  call void @_ZN12rewriter_tplI19fpa2bv_rewriter_cfgEclEP4exprR7obj_refIS2_11ast_managerERS4_I3appS5_E(ptr noundef nonnull align 8 dereferenceable(536) %7, ptr noundef %8, ptr noundef nonnull align 8 dereferenceable(16) %9, ptr noundef nonnull align 8 dereferenceable(16) %10)
  ret void
}

; Function Attrs: mustprogress nounwind uwtable
define linkonce_odr hidden void @_ZN7obj_refI4expr11ast_managerEC2ERS1_(ptr noundef nonnull align 8 dereferenceable(16) %0, ptr noundef nonnull align 8 dereferenceable(976) %1) unnamed_addr #6 comdat align 2 {
  %3 = alloca ptr, align 8
  %4 = alloca ptr, align 8
  store ptr %0, ptr %3, align 8, !tbaa !97
  store ptr %1, ptr %4, align 8, !tbaa !8
  %5 = load ptr, ptr %3, align 8
  %6 = getelementptr inbounds nuw %class.obj_ref, ptr %5, i32 0, i32 0
  store ptr null, ptr %6, align 8, !tbaa !119
  %7 = getelementptr inbounds nuw %class.obj_ref, ptr %5, i32 0, i32 1
  %8 = load ptr, ptr %4, align 8, !tbaa !8
  store ptr %8, ptr %7, align 8, !tbaa !8
  ret void
}

; Function Attrs: mustprogress nounwind uwtable
define linkonce_odr hidden noundef nonnull align 8 dereferenceable(976) ptr @_ZNK19fpa2bv_rewriter_cfg1mEv(ptr noundef nonnull align 8 dereferenceable(60) %0) #6 comdat align 2 {
  %2 = alloca ptr, align 8
  store ptr %0, ptr %2, align 8, !tbaa !3
  %3 = load ptr, ptr %2, align 8
  %4 = getelementptr inbounds nuw %struct.fpa2bv_rewriter_cfg, ptr %3, i32 0, i32 0
  %5 = load ptr, ptr %4, align 8, !tbaa !14
  ret ptr %5
}

; Function Attrs: mustprogress uwtable
define hidden void @_ZN15fpa2bv_rewriter23convert_conversion_termER11th_rewriterP4expr(ptr dead_on_unwind noalias writable sret(%class.obj_ref) align 8 %0, ptr noundef nonnull align 8 dereferenceable(600) %1, ptr noundef nonnull align 8 dereferenceable(16) %2, ptr noundef %3) #4 align 2 personality ptr @__gxx_personality_v0 {
  %5 = alloca ptr, align 8
  %6 = alloca ptr, align 8
  %7 = alloca ptr, align 8
  %8 = alloca ptr, align 8
  %9 = alloca i1, align 1
  %10 = alloca ptr, align 8
  %11 = alloca i32, align 4
  store ptr %0, ptr %5, align 8
  store ptr %1, ptr %6, align 8, !tbaa !334
  store ptr %2, ptr %7, align 8, !tbaa !336
  store ptr %3, ptr %8, align 8, !tbaa !105
  %12 = load ptr, ptr %6, align 8
  store i1 false, ptr %9, align 1
  %13 = getelementptr inbounds nuw %struct.fpa2bv_rewriter, ptr %12, i32 0, i32 1
  %14 = call noundef nonnull align 8 dereferenceable(976) ptr @_ZNK19fpa2bv_rewriter_cfg1mEv(ptr noundef nonnull align 8 dereferenceable(60) %13)
  call void @_ZN7obj_refI4expr11ast_managerEC2ERS1_(ptr noundef nonnull align 8 dereferenceable(16) %0, ptr noundef nonnull align 8 dereferenceable(976) %14)
  %15 = load ptr, ptr %8, align 8, !tbaa !105
  invoke void @_ZN12rewriter_tplI19fpa2bv_rewriter_cfgEclEP4exprR7obj_refIS2_11ast_managerE(ptr noundef nonnull align 8 dereferenceable(536) %12, ptr noundef %15, ptr noundef nonnull align 8 dereferenceable(16) %0)
          to label %16 unwind label %22

16:                                               ; preds = %4
  %17 = load ptr, ptr %7, align 8, !tbaa !336
  %18 = invoke noundef ptr @_ZNK7obj_refI4expr11ast_managerEcvPS0_Ev(ptr noundef nonnull align 8 dereferenceable(16) %0)
          to label %19 unwind label %22

19:                                               ; preds = %16
  invoke void @_ZN11th_rewriterclEP4exprR7obj_refIS0_11ast_managerE(ptr noundef nonnull align 8 dereferenceable(16) %17, ptr noundef %18, ptr noundef nonnull align 8 dereferenceable(16) %0)
          to label %20 unwind label %22

20:                                               ; preds = %19
  store i1 true, ptr %9, align 1
  %21 = load i1, ptr %9, align 1
  br i1 %21, label %27, label %26

22:                                               ; preds = %19, %16, %4
  %23 = landingpad { ptr, i32 }
          cleanup
  %24 = extractvalue { ptr, i32 } %23, 0
  store ptr %24, ptr %10, align 8
  %25 = extractvalue { ptr, i32 } %23, 1
  store i32 %25, ptr %11, align 4
  call void @_ZN7obj_refI4expr11ast_managerED2Ev(ptr noundef nonnull align 8 dereferenceable(16) %0) #3
  br label %28

26:                                               ; preds = %20
  call void @_ZN7obj_refI4expr11ast_managerED2Ev(ptr noundef nonnull align 8 dereferenceable(16) %0) #3
  br label %27

27:                                               ; preds = %26, %20
  ret void

28:                                               ; preds = %22
  %29 = load ptr, ptr %10, align 8
  %30 = load i32, ptr %11, align 4
  %31 = insertvalue { ptr, i32 } poison, ptr %29, 0
  %32 = insertvalue { ptr, i32 } %31, i32 %30, 1
  resume { ptr, i32 } %32
}