; Function Attrs: mustprogress uwtable
define hidden void @_ZN15fpa2bv_rewriter23convert_conversion_termER11th_rewriterP4expr(ptr dead_on_unwind noalias nonnull writable sret(%class.obj_ref) align 8 initializes((0, 16)) %0, ptr noundef nonnull align 8 dereferenceable(600) %1, ptr noundef nonnull align 8 dereferenceable(16) %2, ptr noundef %3) local_unnamed_addr #3 align 2 personality ptr @__gxx_personality_v0 {
  %5 = getelementptr inbounds nuw i8, ptr %1, i64 536
  %6 = load ptr, ptr %5, align 8, !tbaa !17
  store ptr null, ptr %0, align 8, !tbaa !102
  %7 = getelementptr inbounds nuw i8, ptr %0, i64 8
  store ptr %6, ptr %7, align 8, !tbaa !3
  %8 = getelementptr inbounds nuw i8, ptr %1, i64 496
  invoke void @_ZN12rewriter_tplI19fpa2bv_rewriter_cfgEclEP4exprR7obj_refIS2_11ast_managerERS4_I3appS5_E(ptr noundef nonnull align 8 dereferenceable(536) %1, ptr noundef %3, ptr noundef nonnull align 8 dereferenceable(16) %0, ptr noundef nonnull align 8 dereferenceable(16) %8)
          to label %_ZN12rewriter_tplI19fpa2bv_rewriter_cfgEclEP4exprR7obj_refIS2_11ast_managerE.exit unwind label %10

_ZN12rewriter_tplI19fpa2bv_rewriter_cfgEclEP4exprR7obj_refIS2_11ast_managerE.exit: ; preds = %4
  %9 = load ptr, ptr %0, align 8, !tbaa !102
  invoke void @_ZN11th_rewriterclEP4exprR7obj_refIS0_11ast_managerE(ptr noundef nonnull align 8 dereferenceable(16) %2, ptr noundef %9, ptr noundef nonnull align 8 dereferenceable(16) %0)
          to label %12 unwind label %10

10:                                               ; preds = %4, %_ZN12rewriter_tplI19fpa2bv_rewriter_cfgEclEP4exprR7obj_refIS2_11ast_managerE.exit
  %11 = landingpad { ptr, i32 }
          cleanup
  tail call void @_ZN7obj_refI4expr11ast_managerED2Ev(ptr noundef nonnull align 8 dereferenceable(16) %0) #21
  resume { ptr, i32 } %11

12:                                               ; preds = %_ZN12rewriter_tplI19fpa2bv_rewriter_cfgEclEP4exprR7obj_refIS2_11ast_managerE.exit
  ret void
}